target datalayout = "e-m:e-p270:32:32-p271:32:32-p272:64:64-i64:64-i128:128-f80:128-n8:16:32:64-S128"
target triple = "x86_64-pc-linux-gnu"

@.str.40 = private unnamed_addr constant [14 x i8] c"Other Reasons\00", align 1
@.str.41 = private unnamed_addr constant [15 x i8] c"Get Live Files\00", align 1
@.str.42 = private unnamed_addr constant [10 x i8] c"Shut down\00", align 1
@.str.43 = private unnamed_addr constant [24 x i8] c"External File Ingestion\00", align 1
@.str.44 = private unnamed_addr constant [18 x i8] c"Manual Compaction\00", align 1
@.str.45 = private unnamed_addr constant [21 x i8] c"Write Buffer Manager\00", align 1
@.str.46 = private unnamed_addr constant [18 x i8] c"Write Buffer Full\00", align 1
@.str.47 = private unnamed_addr constant [5 x i8] c"Test\00", align 1
@.str.48 = private unnamed_addr constant [13 x i8] c"Delete Files\00", align 1
@.str.49 = private unnamed_addr constant [16 x i8] c"Auto Compaction\00", align 1
@.str.50 = private unnamed_addr constant [13 x i8] c"Manual Flush\00", align 1
@.str.51 = private unnamed_addr constant [15 x i8] c"Error Recovery\00", align 1
@.str.52 = private unnamed_addr constant [27 x i8] c"Error Recovery Retry Flush\00", align 1
@.str.53 = private unnamed_addr constant [9 x i8] c"WAL Full\00", align 1
@.str.54 = private unnamed_addr constant [30 x i8] c"Catch Up After Error Recovery\00", align 1
@.str.55 = private unnamed_addr constant [8 x i8] c"Invalid\00", align 1

; Function Attrs: mustprogress nounwind uwtable
define noundef ptr @_ZN7rocksdb20GetFlushReasonStringENS_11FlushReasonE(i32 noundef %0) #3 {
  %2 = alloca ptr, align 8
  %3 = alloca i32, align 4
  store i32 %0, ptr %3, align 4, !tbaa !52
  %4 = load i32, ptr %3, align 4, !tbaa !52
  switch i32 %4, label %20 [
    i32 0, label %5
    i32 1, label %6
    i32 2, label %7
    i32 3, label %8
    i32 4, label %9
    i32 5, label %10
    i32 6, label %11
    i32 7, label %12
    i32 8, label %13
    i32 9, label %14
    i32 10, label %15
    i32 11, label %16
    i32 12, label %17
    i32 13, label %18
    i32 14, label %19
  ]

5:                                                ; preds = %1
  store ptr @.str.40, ptr %2, align 8
  br label %21

6:                                                ; preds = %1
  store ptr @.str.41, ptr %2, align 8
  br label %21

7:                                                ; preds = %1
  store ptr @.str.42, ptr %2, align 8
  br label %21

8:                                                ; preds = %1
  store ptr @.str.43, ptr %2, align 8
  br label %21

9:                                                ; preds = %1
  store ptr @.str.44, ptr %2, align 8
  br label %21

10:                                               ; preds = %1
  store ptr @.str.45, ptr %2, align 8
  br label %21

11:                                               ; preds = %1
  store ptr @.str.46, ptr %2, align 8
  br label %21

12:                                               ; preds = %1
  store ptr @.str.47, ptr %2, align 8
  br label %21

13:                                               ; preds = %1
  store ptr @.str.48, ptr %2, align 8
  br label %21

14:                                               ; preds = %1
  store ptr @.str.49, ptr %2, align 8
  br label %21

15:                                               ; preds = %1
  store ptr @.str.50, ptr %2, align 8
  br label %21

16:                                               ; preds = %1
  store ptr @.str.51, ptr %2, align 8
  br label %21

17:                                               ; preds = %1
  store ptr @.str.52, ptr %2, align 8
  br label %21

18:                                               ; preds = %1
  store ptr @.str.53, ptr %2, align 8
  br label %21

19:                                               ; preds = %1
  store ptr @.str.54, ptr %2, align 8
  br label %21

20:                                               ; preds = %1
  store ptr @.str.55, ptr %2, align 8
  br label %21

21:                                               ; preds = %20, %19, %18, %17, %16, %15, %14, %13, %12, %11, %10, %9, %8, %7, %6, %5
  %22 = load ptr, ptr %2, align 8
  ret ptr %22
}